target datalayout = "e-m:e-p270:32:32-p271:32:32-p272:64:64-i64:64-i128:128-f80:128-n8:16:32:64-S128"
target triple = "x86_64-pc-linux-gnu"

%"struct.vcpkg::msg::MessageT" = type { i64 }
%"class.std::__cxx11::basic_string" = type { %"struct.std::__cxx11::basic_string<char>::_Alloc_hider", i64, %union.anon.0 }
%"struct.std::__cxx11::basic_string<char>::_Alloc_hider" = type { ptr }
%union.anon.0 = type { i64, [8 x i8] }
%"struct.vcpkg::LineInfo" = type { i32, ptr }
%"struct.vcpkg::LocalizedString" = type { %"class.std::__cxx11::basic_string" }

@.str = private unnamed_addr constant [123 x i8] c"generated/home/dtcxzyw/WorkSpace/Projects/compilers/llvm-opt-benchmark/bench/vcpkg/vcpkg-tool/src/vcpkg/commands.build.cpp\00", align 1
@_ZN5vcpkg23msgBuildResultSucceededE = external global %"struct.vcpkg::msg::MessageT", align 8
@_ZN5vcpkg25msgBuildResultBuildFailedE = external global %"struct.vcpkg::msg::MessageT", align 8
@_ZN5vcpkg35msgBuildResultPostBuildChecksFailedE = external global %"struct.vcpkg::msg::MessageT", align 8
@_ZN5vcpkg27msgBuildResultFileConflictsE = external global %"struct.vcpkg::msg::MessageT", align 8
@_ZN5vcpkg45msgBuildResultCascadeDueToMissingDependenciesE = external global %"struct.vcpkg::msg::MessageT", align 8
@_ZN5vcpkg22msgBuildResultExcludedE = external global %"struct.vcpkg::msg::MessageT", align 8
@_ZN5vcpkg26msgBuildResultCacheMissingE = external global %"struct.vcpkg::msg::MessageT", align 8
@_ZN5vcpkg24msgBuildResultDownloadedE = external global %"struct.vcpkg::msg::MessageT", align 8
@_ZN5vcpkg21msgBuildResultRemovedE = external global %"struct.vcpkg::msg::MessageT", align 8

; Function Attrs: mustprogress uwtable
define dso_local void @_ZN5vcpkg9to_stringENS_11BuildResultE(ptr dead_on_unwind noalias writable sret(%"struct.vcpkg::LocalizedString") align 8 %0, i32 noundef %1) #0 {
  %3 = alloca ptr, align 8
  %4 = alloca i32, align 4
  %5 = alloca %"struct.vcpkg::msg::MessageT", align 8
  %6 = alloca %"struct.vcpkg::msg::MessageT", align 8
  %7 = alloca %"struct.vcpkg::msg::MessageT", align 8
  %8 = alloca %"struct.vcpkg::msg::MessageT", align 8
  %9 = alloca %"struct.vcpkg::msg::MessageT", align 8
  %10 = alloca %"struct.vcpkg::msg::MessageT", align 8
  %11 = alloca %"struct.vcpkg::msg::MessageT", align 8
  %12 = alloca %"struct.vcpkg::msg::MessageT", align 8
  %13 = alloca %"struct.vcpkg::msg::MessageT", align 8
  %14 = alloca %"struct.vcpkg::LineInfo", align 8
  store ptr %0, ptr %3, align 8
  store i32 %1, ptr %4, align 4
  %15 = load i32, ptr %4, align 4
  switch i32 %15, label %43 [
    i32 0, label %16
    i32 1, label %19
    i32 2, label %22
    i32 3, label %25
    i32 4, label %28
    i32 5, label %31
    i32 6, label %34
    i32 7, label %37
    i32 8, label %40
  ]

16:                                               ; preds = %2
  call void @llvm.memcpy.p0.p0.i64(ptr align 8 %5, ptr align 8 @_ZN5vcpkg23msgBuildResultSucceededE, i64 8, i1 false)
  %17 = getelementptr inbounds %"struct.vcpkg::msg::MessageT", ptr %5, i32 0, i32 0
  %18 = load i64, ptr %17, align 8
  call void @_ZN5vcpkg3msg6formatIJEJEEENS_15LocalizedStringENS0_8MessageTIJDpT_EEEDpNS0_6TagArgINS_8identityIS4_E4typeET0_EE(ptr dead_on_unwind writable sret(%"struct.vcpkg::LocalizedString") align 8 %0, i64 %18)
  br label %46

19:                                               ; preds = %2
  call void @llvm.memcpy.p0.p0.i64(ptr align 8 %6, ptr align 8 @_ZN5vcpkg25msgBuildResultBuildFailedE, i64 8, i1 false)
  %20 = getelementptr inbounds %"struct.vcpkg::msg::MessageT", ptr %6, i32 0, i32 0
  %21 = load i64, ptr %20, align 8
  call void @_ZN5vcpkg3msg6formatIJEJEEENS_15LocalizedStringENS0_8MessageTIJDpT_EEEDpNS0_6TagArgINS_8identityIS4_E4typeET0_EE(ptr dead_on_unwind writable sret(%"struct.vcpkg::LocalizedString") align 8 %0, i64 %21)
  br label %46

22:                                               ; preds = %2
  call void @llvm.memcpy.p0.p0.i64(ptr align 8 %7, ptr align 8 @_ZN5vcpkg35msgBuildResultPostBuildChecksFailedE, i64 8, i1 false)
  %23 = getelementptr inbounds %"struct.vcpkg::msg::MessageT", ptr %7, i32 0, i32 0
  %24 = load i64, ptr %23, align 8
  call void @_ZN5vcpkg3msg6formatIJEJEEENS_15LocalizedStringENS0_8MessageTIJDpT_EEEDpNS0_6TagArgINS_8identityIS4_E4typeET0_EE(ptr dead_on_unwind writable sret(%"struct.vcpkg::LocalizedString") align 8 %0, i64 %24)
  br label %46

25:                                               ; preds = %2
  call void @llvm.memcpy.p0.p0.i64(ptr align 8 %8, ptr align 8 @_ZN5vcpkg27msgBuildResultFileConflictsE, i64 8, i1 false)
  %26 = getelementptr inbounds %"struct.vcpkg::msg::MessageT", ptr %8, i32 0, i32 0
  %27 = load i64, ptr %26, align 8
  call void @_ZN5vcpkg3msg6formatIJEJEEENS_15LocalizedStringENS0_8MessageTIJDpT_EEEDpNS0_6TagArgINS_8identityIS4_E4typeET0_EE(ptr dead_on_unwind writable sret(%"struct.vcpkg::LocalizedString") align 8 %0, i64 %27)
  br label %46

28:                                               ; preds = %2
  call void @llvm.memcpy.p0.p0.i64(ptr align 8 %9, ptr align 8 @_ZN5vcpkg45msgBuildResultCascadeDueToMissingDependenciesE, i64 8, i1 false)
  %29 = getelementptr inbounds %"struct.vcpkg::msg::MessageT", ptr %9, i32 0, i32 0
  %30 = load i64, ptr %29, align 8
  call void @_ZN5vcpkg3msg6formatIJEJEEENS_15LocalizedStringENS0_8MessageTIJDpT_EEEDpNS0_6TagArgINS_8identityIS4_E4typeET0_EE(ptr dead_on_unwind writable sret(%"struct.vcpkg::LocalizedString") align 8 %0, i64 %30)
  br label %46

31:                                               ; preds = %2
  call void @llvm.memcpy.p0.p0.i64(ptr align 8 %10, ptr align 8 @_ZN5vcpkg22msgBuildResultExcludedE, i64 8, i1 false)
  %32 = getelementptr inbounds %"struct.vcpkg::msg::MessageT", ptr %10, i32 0, i32 0
  %33 = load i64, ptr %32, align 8
  call void @_ZN5vcpkg3msg6formatIJEJEEENS_15LocalizedStringENS0_8MessageTIJDpT_EEEDpNS0_6TagArgINS_8identityIS4_E4typeET0_EE(ptr dead_on_unwind writable sret(%"struct.vcpkg::LocalizedString") align 8 %0, i64 %33)
  br label %46

34:                                               ; preds = %2
  call void @llvm.memcpy.p0.p0.i64(ptr align 8 %11, ptr align 8 @_ZN5vcpkg26msgBuildResultCacheMissingE, i64 8, i1 false)
  %35 = getelementptr inbounds %"struct.vcpkg::msg::MessageT", ptr %11, i32 0, i32 0
  %36 = load i64, ptr %35, align 8
  call void @_ZN5vcpkg3msg6formatIJEJEEENS_15LocalizedStringENS0_8MessageTIJDpT_EEEDpNS0_6TagArgINS_8identityIS4_E4typeET0_EE(ptr dead_on_unwind writable sret(%"struct.vcpkg::LocalizedString") align 8 %0, i64 %36)
  br label %46

37:                                               ; preds = %2
  call void @llvm.memcpy.p0.p0.i64(ptr align 8 %12, ptr align 8 @_ZN5vcpkg24msgBuildResultDownloadedE, i64 8, i1 false)
  %38 = getelementptr inbounds %"struct.vcpkg::msg::MessageT", ptr %12, i32 0, i32 0
  %39 = load i64, ptr %38, align 8
  call void @_ZN5vcpkg3msg6formatIJEJEEENS_15LocalizedStringENS0_8MessageTIJDpT_EEEDpNS0_6TagArgINS_8identityIS4_E4typeET0_EE(ptr dead_on_unwind writable sret(%"struct.vcpkg::LocalizedString") align 8 %0, i64 %39)
  br label %46

40:                                               ; preds = %2
  call void @llvm.memcpy.p0.p0.i64(ptr align 8 %13, ptr align 8 @_ZN5vcpkg21msgBuildResultRemovedE, i64 8, i1 false)
  %41 = getelementptr inbounds %"struct.vcpkg::msg::MessageT", ptr %13, i32 0, i32 0
  %42 = load i64, ptr %41, align 8
  call void @_ZN5vcpkg3msg6formatIJEJEEENS_15LocalizedStringENS0_8MessageTIJDpT_EEEDpNS0_6TagArgINS_8identityIS4_E4typeET0_EE(ptr dead_on_unwind writable sret(%"struct.vcpkg::LocalizedString") align 8 %0, i64 %42)
  br label %46

43:                                               ; preds = %2
  %44 = getelementptr inbounds %"struct.vcpkg::LineInfo", ptr %14, i32 0, i32 0
  store i32 1447, ptr %44, align 8
  %45 = getelementptr inbounds %"struct.vcpkg::LineInfo", ptr %14, i32 0, i32 1
  store ptr @.str, ptr %45, align 8
  call void @_ZN5vcpkg6Checks11unreachableERKNS_8LineInfoE(ptr noundef nonnull align 8 dereferenceable(16) %14) #20
  unreachable

46:                                               ; preds = %40, %37, %34, %31, %28, %25, %22, %19, %16
  ret void
}