; Function Attrs: mustprogress uwtable
define dso_local void @_ZN5vcpkg9to_stringENS_11BuildResultE(ptr dead_on_unwind noalias writable sret(%"struct.vcpkg::LocalizedString") align 8 %0, i32 noundef %1) local_unnamed_addr #2 {
  %3 = alloca %"struct.vcpkg::LineInfo", align 8
  %4 = icmp ult i32 %1, 9
  br i1 %4, label %switch.lookup, label %5

5:                                                ; preds = %2
  store i32 1447, ptr %3, align 8
  %6 = getelementptr inbounds i8, ptr %3, i64 8
  store ptr @.str, ptr %6, align 8
  call void @_ZN5vcpkg6Checks11unreachableERKNS_8LineInfoE(ptr noundef nonnull align 8 dereferenceable(16) %3) #24
  unreachable

switch.lookup:                                    ; preds = %2
  %7 = zext nneg i32 %1 to i64
  %switch.gep = getelementptr inbounds [9 x ptr], ptr @switch.table._ZN5vcpkg9to_stringENS_11BuildResultE, i64 0, i64 %7
  %switch.load = load ptr, ptr %switch.gep, align 8
  %.sroa.0.0.copyload = load i64, ptr %switch.load, align 8
  tail call void @_ZN5vcpkg3msg6formatIJEJEEENS_15LocalizedStringENS0_8MessageTIJDpT_EEEDpNS0_6TagArgINS_8identityIS4_E4typeET0_EE(ptr dead_on_unwind writable sret(%"struct.vcpkg::LocalizedString") align 8 %0, i64 %.sroa.0.0.copyload)
  ret void
}